target datalayout = "e-m:e-p270:32:32-p271:32:32-p272:64:64-i64:64-i128:128-f80:128-n8:16:32:64-S128"
target triple = "x86_64-pc-linux-gnu"

@.str.3 = private unnamed_addr constant [2 x i8] c"\0A\00", align 1
@.str.4 = private unnamed_addr constant [20 x i8] c"    prep [options]\0A\00", align 1
@.str.5 = private unnamed_addr constant [80 x i8] c"This command runs a conservative RTL synthesis. A typical application for this\0A\00", align 1
@.str.6 = private unnamed_addr constant [80 x i8] c"is the preparation stage of a verification flow. This command does not operate\0A\00", align 1
@.str.7 = private unnamed_addr constant [29 x i8] c"on partly selected designs.\0A\00", align 1
@.str.8 = private unnamed_addr constant [19 x i8] c"    -top <module>\0A\00", align 1
@.str.9 = private unnamed_addr constant [64 x i8] c"        use the specified module as top module (default='top')\0A\00", align 1
@.str.10 = private unnamed_addr constant [15 x i8] c"    -auto-top\0A\00", align 1
@.str.11 = private unnamed_addr constant [65 x i8] c"        automatically determine the top of the design hierarchy\0A\00", align 1
@.str.12 = private unnamed_addr constant [14 x i8] c"    -flatten\0A\00", align 1
@.str.13 = private unnamed_addr constant [76 x i8] c"        flatten the design before synthesis. this will pass '-auto-top' to\0A\00", align 1
@.str.14 = private unnamed_addr constant [52 x i8] c"        'hierarchy' if no top module is specified.\0A\00", align 1
@.str.15 = private unnamed_addr constant [10 x i8] c"    -ifx\0A\00", align 1
@.str.16 = private unnamed_addr constant [80 x i8] c"        passed to 'proc'. uses verilog simulation behavior for verilog if/case\0A\00", align 1
@.str.17 = private unnamed_addr constant [70 x i8] c"        undef handling. this also prevents 'wreduce' from being run.\0A\00", align 1
@.str.18 = private unnamed_addr constant [11 x i8] c"    -memx\0A\00", align 1
@.str.19 = private unnamed_addr constant [80 x i8] c"        simulate verilog simulation behavior for out-of-bounds memory accesses\0A\00", align 1
@.str.20 = private unnamed_addr constant [39 x i8] c"        using the 'memory_memx' pass.\0A\00", align 1
@.str.21 = private unnamed_addr constant [12 x i8] c"    -nomem\0A\00", align 1
@.str.22 = private unnamed_addr constant [47 x i8] c"        do not run any of the memory_* passes\0A\00", align 1
@.str.23 = private unnamed_addr constant [11 x i8] c"    -rdff\0A\00", align 1
@.str.24 = private unnamed_addr constant [61 x i8] c"        call 'memory_dff'. This enables merging of FFs into\0A\00", align 1
@.str.25 = private unnamed_addr constant [28 x i8] c"        memory read ports.\0A\00", align 1
@.str.26 = private unnamed_addr constant [15 x i8] c"    -nokeepdc\0A\00", align 1
@.str.27 = private unnamed_addr constant [40 x i8] c"        do not call opt_* with -keepdc\0A\00", align 1
@.str.28 = private unnamed_addr constant [36 x i8] c"    -run <from_label>[:<to_label>]\0A\00", align 1
@.str.29 = private unnamed_addr constant [72 x i8] c"        only run the commands between the labels (see below). an empty\0A\00", align 1
@.str.30 = private unnamed_addr constant [68 x i8] c"        from label is synonymous to 'begin', and empty to label is\0A\00", align 1
@.str.31 = private unnamed_addr constant [52 x i8] c"        synonymous to the end of the command list.\0A\00", align 1
@.str.32 = private unnamed_addr constant [64 x i8] c"The following commands are executed by this synthesis command:\0A\00", align 1

; Function Attrs: mustprogress uwtable
define internal void @_ZN12_GLOBAL__N_18PrepPass4helpEv(ptr noundef nonnull align 8 dereferenceable(255) %0) unnamed_addr #4 align 2 {
  %2 = alloca ptr, align 8
  store ptr %0, ptr %2, align 8
  %3 = load ptr, ptr %2, align 8
  call void (ptr, ...) @_ZN5Yosys3logEPKcz(ptr noundef @.str.3)
  call void (ptr, ...) @_ZN5Yosys3logEPKcz(ptr noundef @.str.4)
  call void (ptr, ...) @_ZN5Yosys3logEPKcz(ptr noundef @.str.3)
  call void (ptr, ...) @_ZN5Yosys3logEPKcz(ptr noundef @.str.5)
  call void (ptr, ...) @_ZN5Yosys3logEPKcz(ptr noundef @.str.6)
  call void (ptr, ...) @_ZN5Yosys3logEPKcz(ptr noundef @.str.7)
  call void (ptr, ...) @_ZN5Yosys3logEPKcz(ptr noundef @.str.3)
  call void (ptr, ...) @_ZN5Yosys3logEPKcz(ptr noundef @.str.8)
  call void (ptr, ...) @_ZN5Yosys3logEPKcz(ptr noundef @.str.9)
  call void (ptr, ...) @_ZN5Yosys3logEPKcz(ptr noundef @.str.3)
  call void (ptr, ...) @_ZN5Yosys3logEPKcz(ptr noundef @.str.10)
  call void (ptr, ...) @_ZN5Yosys3logEPKcz(ptr noundef @.str.11)
  call void (ptr, ...) @_ZN5Yosys3logEPKcz(ptr noundef @.str.3)
  call void (ptr, ...) @_ZN5Yosys3logEPKcz(ptr noundef @.str.12)
  call void (ptr, ...) @_ZN5Yosys3logEPKcz(ptr noundef @.str.13)
  call void (ptr, ...) @_ZN5Yosys3logEPKcz(ptr noundef @.str.14)
  call void (ptr, ...) @_ZN5Yosys3logEPKcz(ptr noundef @.str.3)
  call void (ptr, ...) @_ZN5Yosys3logEPKcz(ptr noundef @.str.15)
  call void (ptr, ...) @_ZN5Yosys3logEPKcz(ptr noundef @.str.16)
  call void (ptr, ...) @_ZN5Yosys3logEPKcz(ptr noundef @.str.17)
  call void (ptr, ...) @_ZN5Yosys3logEPKcz(ptr noundef @.str.3)
  call void (ptr, ...) @_ZN5Yosys3logEPKcz(ptr noundef @.str.18)
  call void (ptr, ...) @_ZN5Yosys3logEPKcz(ptr noundef @.str.19)
  call void (ptr, ...) @_ZN5Yosys3logEPKcz(ptr noundef @.str.20)
  call void (ptr, ...) @_ZN5Yosys3logEPKcz(ptr noundef @.str.3)
  call void (ptr, ...) @_ZN5Yosys3logEPKcz(ptr noundef @.str.21)
  call void (ptr, ...) @_ZN5Yosys3logEPKcz(ptr noundef @.str.22)
  call void (ptr, ...) @_ZN5Yosys3logEPKcz(ptr noundef @.str.3)
  call void (ptr, ...) @_ZN5Yosys3logEPKcz(ptr noundef @.str.23)
  call void (ptr, ...) @_ZN5Yosys3logEPKcz(ptr noundef @.str.24)
  call void (ptr, ...) @_ZN5Yosys3logEPKcz(ptr noundef @.str.25)
  call void (ptr, ...) @_ZN5Yosys3logEPKcz(ptr noundef @.str.3)
  call void (ptr, ...) @_ZN5Yosys3logEPKcz(ptr noundef @.str.26)
  call void (ptr, ...) @_ZN5Yosys3logEPKcz(ptr noundef @.str.27)
  call void (ptr, ...) @_ZN5Yosys3logEPKcz(ptr noundef @.str.3)
  call void (ptr, ...) @_ZN5Yosys3logEPKcz(ptr noundef @.str.28)
  call void (ptr, ...) @_ZN5Yosys3logEPKcz(ptr noundef @.str.29)
  call void (ptr, ...) @_ZN5Yosys3logEPKcz(ptr noundef @.str.30)
  call void (ptr, ...) @_ZN5Yosys3logEPKcz(ptr noundef @.str.31)
  call void (ptr, ...) @_ZN5Yosys3logEPKcz(ptr noundef @.str.3)
  call void (ptr, ...) @_ZN5Yosys3logEPKcz(ptr noundef @.str.3)
  call void (ptr, ...) @_ZN5Yosys3logEPKcz(ptr noundef @.str.32)
  call void @_ZN5Yosys10ScriptPass11help_scriptEv(ptr noundef nonnull align 8 dereferenceable(184) %3)
  call void (ptr, ...) @_ZN5Yosys3logEPKcz(ptr noundef @.str.3)
  ret void
}